target datalayout = "e-m:e-p270:32:32-p271:32:32-p272:64:64-i64:64-i128:128-f80:128-n8:16:32:64-S128"
target triple = "x86_64-pc-linux-gnu"

; Function Attrs: mustprogress nounwind uwtable
define linkonce_odr noundef nonnull align 4 dereferenceable(4) ptr @_ZSt3minIiERKT_S2_S2_(ptr noundef nonnull align 4 dereferenceable(4) %0, ptr noundef nonnull align 4 dereferenceable(4) %1) #3 comdat {
  %3 = alloca ptr, align 8
  %4 = alloca ptr, align 8
  %5 = alloca ptr, align 8
  store ptr %0, ptr %4, align 8
  store ptr %1, ptr %5, align 8
  %6 = load ptr, ptr %5, align 8
  %7 = load i32, ptr %6, align 4
  %8 = load ptr, ptr %4, align 8
  %9 = load i32, ptr %8, align 4
  %10 = icmp slt i32 %7, %9
  br i1 %10, label %11, label %13

11:                                               ; preds = %2
  %12 = load ptr, ptr %5, align 8
  store ptr %12, ptr %3, align 8
  br label %15

13:                                               ; preds = %2
  %14 = load ptr, ptr %4, align 8
  store ptr %14, ptr %3, align 8
  br label %15

15:                                               ; preds = %13, %11
  %16 = load ptr, ptr %3, align 8
  ret ptr %16
}

; Function Attrs: mustprogress nounwind uwtable
define linkonce_odr noundef nonnull align 4 dereferenceable(4) ptr @_ZSt3maxIiERKT_S2_S2_(ptr noundef nonnull align 4 dereferenceable(4) %0, ptr noundef nonnull align 4 dereferenceable(4) %1) #3 comdat {
  %3 = alloca ptr, align 8
  %4 = alloca ptr, align 8
  %5 = alloca ptr, align 8
  store ptr %0, ptr %4, align 8
  store ptr %1, ptr %5, align 8
  %6 = load ptr, ptr %4, align 8
  %7 = load i32, ptr %6, align 4
  %8 = load ptr, ptr %5, align 8
  %9 = load i32, ptr %8, align 4
  %10 = icmp slt i32 %7, %9
  br i1 %10, label %11, label %13

11:                                               ; preds = %2
  %12 = load ptr, ptr %5, align 8
  store ptr %12, ptr %3, align 8
  br label %15

13:                                               ; preds = %2
  %14 = load ptr, ptr %4, align 8
  store ptr %14, ptr %3, align 8
  br label %15

15:                                               ; preds = %13, %11
  %16 = load ptr, ptr %3, align 8
  ret ptr %16
}

; Function Attrs: mustprogress uwtable
define internal void @_ZN4ncnnL49convolution_im2col_gemm_get_optimal_tile_mnk_int8EiiiRiS0_S0_i(i32 noundef %0, i32 noundef %1, i32 noundef %2, ptr noundef nonnull align 4 dereferenceable(4) %3, ptr noundef nonnull align 4 dereferenceable(4) %4, ptr noundef nonnull align 4 dereferenceable(4) %5, i32 noundef %6) #0 {
  %8 = alloca i32, align 4
  %9 = alloca i32, align 4
  %10 = alloca i32, align 4
  %11 = alloca ptr, align 8
  %12 = alloca ptr, align 8
  %13 = alloca ptr, align 8
  %14 = alloca i32, align 4
  %15 = alloca i64, align 8
  %16 = alloca i32, align 4
  %17 = alloca i32, align 4
  %18 = alloca i32, align 4
  %19 = alloca i32, align 4
  %20 = alloca i32, align 4
  %21 = alloca i32, align 4
  %22 = alloca i32, align 4
  %23 = alloca i32, align 4
  %24 = alloca i32, align 4
  %25 = alloca i32, align 4
  %26 = alloca i32, align 4
  %27 = alloca i32, align 4
  %28 = alloca i32, align 4
  %29 = alloca i32, align 4
  %30 = alloca i32, align 4
  %31 = alloca i32, align 4
  %32 = alloca i32, align 4
  %33 = alloca i32, align 4
  %34 = alloca i32, align 4
  store i32 %0, ptr %8, align 4
  store i32 %1, ptr %9, align 4
  store i32 %2, ptr %10, align 4
  store ptr %3, ptr %11, align 8
  store ptr %4, ptr %12, align 8
  store ptr %5, ptr %13, align 8
  store i32 %6, ptr %14, align 4
  %35 = call noundef i32 @_ZN4ncnn25get_cpu_level2_cache_sizeEv()
  %36 = sext i32 %35 to i64
  %37 = udiv i64 %36, 1
  %38 = trunc i64 %37 to i32
  %39 = sext i32 %38 to i64
  store i64 %39, ptr %15, align 8
  %40 = load i32, ptr %14, align 4
  %41 = icmp eq i32 %40, 0
  br i1 %41, label %42, label %44

42:                                               ; preds = %7
  %43 = call noundef i32 @_ZN4ncnn26get_physical_big_cpu_countEv()
  store i32 %43, ptr %14, align 4
  br label %44

44:                                               ; preds = %42, %7
  %45 = load i64, ptr %15, align 8
  %46 = sub i64 %45, 16
  %47 = udiv i64 %46, 8
  %48 = trunc i64 %47 to i32
  store i32 %48, ptr %16, align 4
  store i32 4, ptr %17, align 4
  %49 = load i32, ptr %16, align 4
  %50 = sdiv i32 %49, 4
  %51 = mul nsw i32 %50, 4
  store i32 %51, ptr %18, align 4
  %52 = call noundef nonnull align 4 dereferenceable(4) ptr @_ZSt3maxIiERKT_S2_S2_(ptr noundef nonnull align 4 dereferenceable(4) %17, ptr noundef nonnull align 4 dereferenceable(4) %18)
  %53 = load i32, ptr %52, align 4
  %54 = load ptr, ptr %13, align 8
  store i32 %53, ptr %54, align 4
  %55 = load i32, ptr %10, align 4
  %56 = load ptr, ptr %13, align 8
  %57 = load i32, ptr %56, align 4
  %58 = add nsw i32 %55, %57
  %59 = sub nsw i32 %58, 1
  %60 = load ptr, ptr %13, align 8
  %61 = load i32, ptr %60, align 4
  %62 = sdiv i32 %59, %61
  store i32 %62, ptr %19, align 4
  %63 = load ptr, ptr %13, align 8
  %64 = load i32, ptr %10, align 4
  %65 = load i32, ptr %19, align 4
  %66 = add nsw i32 %64, %65
  %67 = sub nsw i32 %66, 1
  %68 = load i32, ptr %19, align 4
  %69 = sdiv i32 %67, %68
  %70 = add nsw i32 %69, 3
  %71 = sdiv i32 %70, 4
  %72 = mul nsw i32 %71, 4
  store i32 %72, ptr %20, align 4
  %73 = call noundef nonnull align 4 dereferenceable(4) ptr @_ZSt3minIiERKT_S2_S2_(ptr noundef nonnull align 4 dereferenceable(4) %63, ptr noundef nonnull align 4 dereferenceable(4) %20)
  %74 = load i32, ptr %73, align 4
  %75 = load ptr, ptr %13, align 8
  store i32 %74, ptr %75, align 4
  %76 = load i32, ptr %8, align 4
  %77 = add nsw i32 %76, 15
  %78 = sdiv i32 %77, 16
  store i32 %78, ptr %21, align 4
  store i32 4, ptr %22, align 4
  %79 = load i32, ptr %8, align 4
  %80 = load i32, ptr %21, align 4
  %81 = add nsw i32 %79, %80
  %82 = sub nsw i32 %81, 1
  %83 = load i32, ptr %21, align 4
  %84 = sdiv i32 %82, %83
  %85 = add nsw i32 %84, 3
  %86 = sdiv i32 %85, 4
  %87 = mul nsw i32 %86, 4
  store i32 %87, ptr %23, align 4
  %88 = call noundef nonnull align 4 dereferenceable(4) ptr @_ZSt3maxIiERKT_S2_S2_(ptr noundef nonnull align 4 dereferenceable(4) %22, ptr noundef nonnull align 4 dereferenceable(4) %23)
  %89 = load i32, ptr %88, align 4
  %90 = load ptr, ptr %11, align 8
  store i32 %89, ptr %90, align 4
  %91 = call noundef i32 @_ZN4ncnn22get_physical_cpu_countEv()
  store i32 %91, ptr %24, align 4
  %92 = call noundef nonnull align 4 dereferenceable(4) ptr @_ZSt3minIiERKT_S2_S2_(ptr noundef nonnull align 4 dereferenceable(4) %14, ptr noundef nonnull align 4 dereferenceable(4) %24)
  %93 = load i32, ptr %92, align 4
  %94 = load ptr, ptr %11, align 8
  %95 = load i32, ptr %94, align 4
  %96 = mul nsw i32 %95, %93
  store i32 %96, ptr %94, align 4
  %97 = load i32, ptr %8, align 4
  %98 = load ptr, ptr %11, align 8
  %99 = load i32, ptr %98, align 4
  %100 = add nsw i32 %97, %99
  %101 = sub nsw i32 %100, 1
  %102 = load ptr, ptr %11, align 8
  %103 = load i32, ptr %102, align 4
  %104 = sdiv i32 %101, %103
  store i32 %104, ptr %25, align 4
  %105 = load ptr, ptr %11, align 8
  %106 = load i32, ptr %8, align 4
  %107 = load i32, ptr %25, align 4
  %108 = add nsw i32 %106, %107
  %109 = sub nsw i32 %108, 1
  %110 = load i32, ptr %25, align 4
  %111 = sdiv i32 %109, %110
  %112 = add nsw i32 %111, 3
  %113 = sdiv i32 %112, 4
  %114 = mul nsw i32 %113, 4
  store i32 %114, ptr %26, align 4
  %115 = call noundef nonnull align 4 dereferenceable(4) ptr @_ZSt3minIiERKT_S2_S2_(ptr noundef nonnull align 4 dereferenceable(4) %105, ptr noundef nonnull align 4 dereferenceable(4) %26)
  %116 = load i32, ptr %115, align 4
  %117 = load ptr, ptr %11, align 8
  store i32 %116, ptr %117, align 4
  %118 = load i32, ptr %14, align 4
  %119 = icmp sgt i32 %118, 1
  br i1 %119, label %120, label %134

120:                                              ; preds = %44
  %121 = load ptr, ptr %11, align 8
  store i32 1, ptr %28, align 4
  %122 = load ptr, ptr %11, align 8
  %123 = load i32, ptr %122, align 4
  %124 = load i32, ptr %14, align 4
  %125 = sdiv i32 %123, %124
  store i32 %125, ptr %29, align 4
  %126 = call noundef nonnull align 4 dereferenceable(4) ptr @_ZSt3maxIiERKT_S2_S2_(ptr noundef nonnull align 4 dereferenceable(4) %28, ptr noundef nonnull align 4 dereferenceable(4) %29)
  %127 = load i32, ptr %126, align 4
  %128 = add nsw i32 %127, 3
  %129 = sdiv i32 %128, 4
  %130 = mul nsw i32 %129, 4
  store i32 %130, ptr %27, align 4
  %131 = call noundef nonnull align 4 dereferenceable(4) ptr @_ZSt3minIiERKT_S2_S2_(ptr noundef nonnull align 4 dereferenceable(4) %121, ptr noundef nonnull align 4 dereferenceable(4) %27)
  %132 = load i32, ptr %131, align 4
  %133 = load ptr, ptr %11, align 8
  store i32 %132, ptr %133, align 4
  br label %134

134:                                              ; preds = %120, %44
  %135 = load i32, ptr %9, align 4
  %136 = icmp sgt i32 %135, 0
  br i1 %136, label %137, label %202

137:                                              ; preds = %134
  %138 = load ptr, ptr %13, align 8
  %139 = load i32, ptr %138, align 4
  %140 = load i32, ptr %10, align 4
  %141 = icmp sge i32 %139, %140
  br i1 %141, label %142, label %156

142:                                              ; preds = %137
  %143 = load i64, ptr %15, align 8
  %144 = load ptr, ptr %11, align 8
  %145 = load i32, ptr %144, align 4
  %146 = load ptr, ptr %13, align 8
  %147 = load i32, ptr %146, align 4
  %148 = mul nsw i32 %145, %147
  %149 = sext i32 %148 to i64
  %150 = sub i64 %143, %149
  %151 = load ptr, ptr %13, align 8
  %152 = load i32, ptr %151, align 4
  %153 = sext i32 %152 to i64
  %154 = udiv i64 %150, %153
  %155 = trunc i64 %154 to i32
  store i32 %155, ptr %30, align 4
  br label %174

156:                                              ; preds = %137
  %157 = load i64, ptr %15, align 8
  %158 = load ptr, ptr %11, align 8
  %159 = load i32, ptr %158, align 4
  %160 = load ptr, ptr %13, align 8
  %161 = load i32, ptr %160, align 4
  %162 = mul nsw i32 %159, %161
  %163 = sext i32 %162 to i64
  %164 = sub i64 %157, %163
  %165 = load ptr, ptr %11, align 8
  %166 = load i32, ptr %165, align 4
  %167 = mul nsw i32 %166, 4
  %168 = load ptr, ptr %13, align 8
  %169 = load i32, ptr %168, align 4
  %170 = add nsw i32 %167, %169
  %171 = sext i32 %170 to i64
  %172 = udiv i64 %164, %171
  %173 = trunc i64 %172 to i32
  store i32 %173, ptr %30, align 4
  br label %174

174:                                              ; preds = %156, %142
  store i32 4, ptr %31, align 4
  %175 = load i32, ptr %30, align 4
  %176 = sdiv i32 %175, 4
  %177 = mul nsw i32 %176, 4
  store i32 %177, ptr %32, align 4
  %178 = call noundef nonnull align 4 dereferenceable(4) ptr @_ZSt3maxIiERKT_S2_S2_(ptr noundef nonnull align 4 dereferenceable(4) %31, ptr noundef nonnull align 4 dereferenceable(4) %32)
  %179 = load i32, ptr %178, align 4
  %180 = load ptr, ptr %12, align 8
  store i32 %179, ptr %180, align 4
  %181 = load i32, ptr %9, align 4
  %182 = load ptr, ptr %12, align 8
  %183 = load i32, ptr %182, align 4
  %184 = add nsw i32 %181, %183
  %185 = sub nsw i32 %184, 1
  %186 = load ptr, ptr %12, align 8
  %187 = load i32, ptr %186, align 4
  %188 = sdiv i32 %185, %187
  store i32 %188, ptr %33, align 4
  %189 = load ptr, ptr %12, align 8
  %190 = load i32, ptr %9, align 4
  %191 = load i32, ptr %33, align 4
  %192 = add nsw i32 %190, %191
  %193 = sub nsw i32 %192, 1
  %194 = load i32, ptr %33, align 4
  %195 = sdiv i32 %193, %194
  %196 = add nsw i32 %195, 3
  %197 = sdiv i32 %196, 4
  %198 = mul nsw i32 %197, 4
  store i32 %198, ptr %34, align 4
  %199 = call noundef nonnull align 4 dereferenceable(4) ptr @_ZSt3minIiERKT_S2_S2_(ptr noundef nonnull align 4 dereferenceable(4) %189, ptr noundef nonnull align 4 dereferenceable(4) %34)
  %200 = load i32, ptr %199, align 4
  %201 = load ptr, ptr %12, align 8
  store i32 %200, ptr %201, align 4
  br label %202

202:                                              ; preds = %174, %134
  ret void
}