; Function Attrs: mustprogress uwtable
define internal fastcc void @_ZN4ncnnL49convolution_im2col_gemm_get_optimal_tile_mnk_int8EiiiRiS0_S0_i(i32 noundef %0, i32 noundef %1, i32 noundef %2, ptr nocapture noundef nonnull align 4 dereferenceable(4) %3, ptr nocapture noundef nonnull writeonly align 4 dereferenceable(4) %4, ptr nocapture noundef nonnull align 4 dereferenceable(4) %5, i32 noundef %6) unnamed_addr #0 {
  %8 = tail call noundef i32 @_ZN4ncnn25get_cpu_level2_cache_sizeEv()
  %9 = sext i32 %8 to i64
  %10 = icmp eq i32 %6, 0
  br i1 %10, label %11, label %13

11:                                               ; preds = %7
  %12 = tail call noundef i32 @_ZN4ncnn26get_physical_big_cpu_countEv()
  br label %13

13:                                               ; preds = %11, %7
  %.0105 = phi i32 [ %12, %11 ], [ %6, %7 ]
  %14 = add nsw i64 %9, 34359738352
  %15 = lshr i64 %14, 3
  %16 = trunc i64 %15 to i32
  %17 = sdiv i32 %16, 4
  %18 = shl nsw i32 %17, 2
  %.sroa.speculated95 = tail call i32 @llvm.smax.i32(i32 %18, i32 4)
  %19 = add i32 %2, -1
  %20 = add i32 %19, %.sroa.speculated95
  %21 = sdiv i32 %20, %.sroa.speculated95
  %22 = add i32 %19, %21
  %23 = sdiv i32 %22, %21
  %24 = add nsw i32 %23, 3
  %25 = sdiv i32 %24, 4
  %26 = shl nsw i32 %25, 2
  %.sroa.speculated91 = tail call i32 @llvm.smin.i32(i32 %26, i32 %.sroa.speculated95)
  store i32 %.sroa.speculated91, ptr %5, align 4
  %27 = add nsw i32 %0, 15
  %28 = sdiv i32 %27, 16
  %29 = add i32 %0, -1
  %30 = add i32 %29, %28
  %31 = sdiv i32 %30, %28
  %32 = add nsw i32 %31, 3
  %33 = sdiv i32 %32, 4
  %34 = shl nsw i32 %33, 2
  %.sroa.speculated85 = tail call i32 @llvm.smax.i32(i32 %34, i32 4)
  store i32 %.sroa.speculated85, ptr %3, align 4
  %35 = tail call noundef i32 @_ZN4ncnn22get_physical_cpu_countEv()
  %.sroa.speculated81 = tail call i32 @llvm.smin.i32(i32 %35, i32 %.0105)
  %36 = load i32, ptr %3, align 4
  %37 = mul nsw i32 %36, %.sroa.speculated81
  %38 = add i32 %29, %37
  %39 = sdiv i32 %38, %37
  %40 = add i32 %29, %39
  %41 = sdiv i32 %40, %39
  %42 = add nsw i32 %41, 3
  %43 = sdiv i32 %42, 4
  %44 = shl nsw i32 %43, 2
  %.sroa.speculated77 = tail call i32 @llvm.smin.i32(i32 %44, i32 %37)
  %45 = icmp sgt i32 %.0105, 1
  br i1 %45, label %46, label %50

46:                                               ; preds = %13
  %47 = sdiv i32 %.sroa.speculated77, %.0105
  %.sroa.speculated67 = tail call i32 @llvm.smax.i32(i32 %47, i32 1)
  %48 = add nuw nsw i32 %.sroa.speculated67, 3
  %49 = and i32 %48, 2147483644
  %.sroa.speculated73 = tail call i32 @llvm.smin.i32(i32 %49, i32 %.sroa.speculated77)
  br label %50

50:                                               ; preds = %46, %13
  %51 = phi i32 [ %.sroa.speculated73, %46 ], [ %.sroa.speculated77, %13 ]
  store i32 %51, ptr %3, align 4
  %52 = icmp sgt i32 %1, 0
  br i1 %52, label %53, label %71

53:                                               ; preds = %50
  %54 = load i32, ptr %5, align 4
  %.not = icmp slt i32 %54, %2
  %55 = mul nsw i32 %51, %54
  %56 = sext i32 %55 to i64
  %57 = sub nsw i64 %9, %56
  %58 = shl nsw i32 %51, 2
  %59 = select i1 %.not, i32 %58, i32 0
  %.sink106 = add nsw i32 %54, %59
  %60 = sext i32 %.sink106 to i64
  %61 = udiv i64 %57, %60
  %.0 = trunc i64 %61 to i32
  %62 = sdiv i32 %.0, 4
  %63 = shl nsw i32 %62, 2
  %.sroa.speculated61 = tail call i32 @llvm.smax.i32(i32 %63, i32 4)
  %64 = add nsw i32 %1, -1
  %65 = add nuw i32 %64, %.sroa.speculated61
  %66 = udiv i32 %65, %.sroa.speculated61
  %67 = add nuw i32 %64, %66
  %68 = udiv i32 %67, %66
  %69 = add nuw nsw i32 %68, 3
  %70 = and i32 %69, -4
  %.sroa.speculated = tail call i32 @llvm.umin.i32(i32 %70, i32 %.sroa.speculated61)
  store i32 %.sroa.speculated, ptr %4, align 4
  br label %71

71:                                               ; preds = %53, %50
  ret void
}